; Function Attrs: nounwind uwtable
define range(i32 -1, -2147483648) i32 @H5Premove(i64 noundef %0, ptr noundef %1) local_unnamed_addr #0 {
  %3 = load i8, ptr @H5_libinit_g, align 1
  %4 = trunc i8 %3 to i1
  %5 = load i8, ptr @H5_libterm_g, align 1
  %6 = trunc i8 %5 to i1
  %7 = select i1 %4, i1 true, i1 %6
  br i1 %7, label %15, label %8

8:                                                ; preds = %2
  %9 = tail call i32 @H5_init_library() #2
  %10 = icmp slt i32 %9, 0
  br i1 %10, label %11, label %15

11:                                               ; preds = %8
  %12 = load i64, ptr @H5E_FUNC_g, align 8
  %13 = load i64, ptr @H5E_CANTINIT_g, align 8
  %14 = tail call i32 (ptr, ptr, i32, i64, i64, ptr, ...) @H5E_printf_stack(ptr noundef nonnull @.str, ptr noundef nonnull @__func__.H5Premove, i32 noundef 1297, i64 noundef %12, i64 noundef %13, ptr noundef nonnull @.str.1) #2
  br label %.thread26

15:                                               ; preds = %8, %2
  %16 = tail call i32 @H5CX_push() #2
  %17 = icmp slt i32 %16, 0
  br i1 %17, label %18, label %22

18:                                               ; preds = %15
  %19 = load i64, ptr @H5E_FUNC_g, align 8
  %20 = load i64, ptr @H5E_CANTSET_g, align 8
  %21 = tail call i32 (ptr, ptr, i32, i64, i64, ptr, ...) @H5E_printf_stack(ptr noundef nonnull @.str, ptr noundef nonnull @__func__.H5Premove, i32 noundef 1297, i64 noundef %19, i64 noundef %20, ptr noundef nonnull @.str.2) #2
  br label %.thread26

22:                                               ; preds = %15
  %23 = tail call i32 @H5E_clear_stack() #2
  %24 = tail call ptr @H5I_object_verify(i64 noundef %0, i32 noundef 11) #2
  %25 = icmp eq ptr %24, null
  br i1 %25, label %26, label %30

26:                                               ; preds = %22
  %27 = load i64, ptr @H5E_ARGS_g, align 8
  %28 = load i64, ptr @H5E_BADTYPE_g, align 8
  %29 = tail call i32 (ptr, ptr, i32, i64, i64, ptr, ...) @H5E_printf_stack(ptr noundef nonnull @.str, ptr noundef nonnull @__func__.H5Premove, i32 noundef 1301, i64 noundef %27, i64 noundef %28, ptr noundef nonnull @.str.18) #2
  br label %.thread32

30:                                               ; preds = %22
  %.not = icmp eq ptr %1, null
  br i1 %.not, label %33, label %31

31:                                               ; preds = %30
  %32 = load i8, ptr %1, align 1
  %.not17 = icmp eq i8 %32, 0
  br i1 %.not17, label %33, label %37

33:                                               ; preds = %30, %31
  %34 = load i64, ptr @H5E_ARGS_g, align 8
  %35 = load i64, ptr @H5E_BADVALUE_g, align 8
  %36 = tail call i32 (ptr, ptr, i32, i64, i64, ptr, ...) @H5E_printf_stack(ptr noundef nonnull @.str, ptr noundef nonnull @__func__.H5Premove, i32 noundef 1303, i64 noundef %34, i64 noundef %35, ptr noundef nonnull @.str.19) #2
  br label %.thread32

37:                                               ; preds = %31
  %38 = tail call i32 @H5P_remove(ptr noundef nonnull %24, ptr noundef nonnull %1) #2
  %39 = icmp slt i32 %38, 0
  br i1 %39, label %40, label %45

40:                                               ; preds = %37
  %41 = load i64, ptr @H5E_PLIST_g, align 8
  %42 = load i64, ptr @H5E_CANTDELETE_g, align 8
  %43 = tail call i32 (ptr, ptr, i32, i64, i64, ptr, ...) @H5E_printf_stack(ptr noundef nonnull @.str, ptr noundef nonnull @__func__.H5Premove, i32 noundef 1307, i64 noundef %41, i64 noundef %42, ptr noundef nonnull @.str.45) #2
  br label %.thread32

.thread32:                                        ; preds = %33, %40, %26
  %44 = tail call i32 @H5CX_pop(i1 noundef zeroext true) #2
  br label %.thread26

45:                                               ; preds = %37
  %46 = tail call i32 @H5CX_pop(i1 noundef zeroext true) #2
  br label %48

.thread26:                                        ; preds = %18, %11, %.thread32
  %47 = tail call i32 @H5E_dump_api_stack() #2
  br label %48

48:                                               ; preds = %45, %.thread26
  %.0132129 = phi i32 [ -1, %.thread26 ], [ %38, %45 ]
  ret i32 %.0132129
}